target datalayout = "e-m:e-p270:32:32-p271:32:32-p272:64:64-i64:64-i128:128-f80:128-n8:16:32:64-S128"
target triple = "x86_64-unknown-linux-gnu"

%"class.net::QuicClientPromisedInfo" = type { %"class.net::QuicClientPushPromiseIndex::TryHandle", ptr, i32, %"class.std::__cxx11::basic_string", %"class.std::unique_ptr", %"class.std::unique_ptr", %"class.std::unique_ptr", ptr, %"class.std::unique_ptr.2" }
%"class.net::QuicClientPushPromiseIndex::TryHandle" = type { ptr }
%"class.std::__cxx11::basic_string" = type { %"struct.std::__cxx11::basic_string<char>::_Alloc_hider", i64, %union.anon }
%"struct.std::__cxx11::basic_string<char>::_Alloc_hider" = type { ptr }
%union.anon = type { i64, [8 x i8] }
%"class.std::unique_ptr" = type { %"struct.std::__uniq_ptr_data" }
%"struct.std::__uniq_ptr_data" = type { %"class.std::__uniq_ptr_impl" }
%"class.std::__uniq_ptr_impl" = type { %"class.std::tuple" }
%"class.std::tuple" = type { %"struct.std::_Tuple_impl" }
%"struct.std::_Tuple_impl" = type { %"struct.std::_Head_base.1" }
%"struct.std::_Head_base.1" = type { ptr }
%"class.std::unique_ptr.2" = type { %"struct.std::__uniq_ptr_data.3" }
%"struct.std::__uniq_ptr_data.3" = type { %"class.std::__uniq_ptr_impl.4" }
%"class.std::__uniq_ptr_impl.4" = type { %"class.std::tuple.5" }
%"class.std::tuple.5" = type { %"struct.std::_Tuple_impl.6" }
%"struct.std::_Tuple_impl.6" = type { %"struct.std::_Head_base.9" }
%"struct.std::_Head_base.9" = type { ptr }

; Function Attrs: mustprogress uwtable
define dso_local void @_ZN3net22QuicClientPromisedInfo5ResetENS_22QuicRstStreamErrorCodeE(ptr noundef nonnull align 8 dereferenceable(96) %this, i32 noundef %error_code) #0 align 2 {
entry:
  %this.addr = alloca ptr, align 8
  %error_code.addr = alloca i32, align 4
  %delegate = alloca ptr, align 8
  store ptr %this, ptr %this.addr, align 8
  store i32 %error_code, ptr %error_code.addr, align 4
  %this1 = load ptr, ptr %this.addr, align 8
  %client_request_delegate_ = getelementptr inbounds %"class.net::QuicClientPromisedInfo", ptr %this1, i32 0, i32 7
  %0 = load ptr, ptr %client_request_delegate_, align 8
  store ptr %0, ptr %delegate, align 8
  %session_ = getelementptr inbounds %"class.net::QuicClientPromisedInfo", ptr %this1, i32 0, i32 1
  %1 = load ptr, ptr %session_, align 8
  %id_ = getelementptr inbounds %"class.net::QuicClientPromisedInfo", ptr %this1, i32 0, i32 2
  %2 = load i32, ptr %id_, align 8
  %3 = load i32, ptr %error_code.addr, align 4
  call void @_ZN3net21QuicClientSessionBase13ResetPromisedEjNS_22QuicRstStreamErrorCodeE(ptr noundef nonnull align 8 dereferenceable(2140) %1, i32 noundef %2, i32 noundef %3)
  %session_2 = getelementptr inbounds %"class.net::QuicClientPromisedInfo", ptr %this1, i32 0, i32 1
  %4 = load ptr, ptr %session_2, align 8
  %vtable = load ptr, ptr %4, align 8
  %vfn = getelementptr inbounds ptr, ptr %vtable, i64 55
  %5 = load ptr, ptr %vfn, align 8
  call void %5(ptr noundef nonnull align 8 dereferenceable(2140) %4, ptr noundef %this1)
  %6 = load ptr, ptr %delegate, align 8
  %tobool = icmp ne ptr %6, null
  br i1 %tobool, label %if.then, label %if.end

if.then:                                          ; preds = %entry
  %7 = load ptr, ptr %delegate, align 8
  %vtable3 = load ptr, ptr %7, align 8
  %vfn4 = getelementptr inbounds ptr, ptr %vtable3, i64 3
  %8 = load ptr, ptr %vfn4, align 8
  call void %8(ptr noundef nonnull align 8 dereferenceable(8) %7, ptr noundef null)
  br label %if.end

if.end:                                           ; preds = %if.then, %entry
  ret void
}