; Function Attrs: mustprogress uwtable
define dso_local void @_ZN3net22QuicClientPromisedInfo5ResetENS_22QuicRstStreamErrorCodeE(ptr noundef nonnull align 8 dereferenceable(96) %this, i32 noundef %error_code) local_unnamed_addr #3 align 2 {
entry:
  %client_request_delegate_ = getelementptr inbounds i8, ptr %this, i64 80
  %0 = load ptr, ptr %client_request_delegate_, align 8
  %session_ = getelementptr inbounds i8, ptr %this, i64 8
  %1 = load ptr, ptr %session_, align 8
  %id_ = getelementptr inbounds i8, ptr %this, i64 16
  %2 = load i32, ptr %id_, align 8
  tail call void @_ZN3net21QuicClientSessionBase13ResetPromisedEjNS_22QuicRstStreamErrorCodeE(ptr noundef nonnull align 8 dereferenceable(2140) %1, i32 noundef %2, i32 noundef %error_code)
  %3 = load ptr, ptr %session_, align 8
  %vtable = load ptr, ptr %3, align 8
  %vfn = getelementptr inbounds i8, ptr %vtable, i64 440
  %4 = load ptr, ptr %vfn, align 8
  tail call void %4(ptr noundef nonnull align 8 dereferenceable(2140) %3, ptr noundef nonnull %this)
  %tobool.not = icmp eq ptr %0, null
  br i1 %tobool.not, label %if.end, label %if.then

if.then:                                          ; preds = %entry
  %vtable3 = load ptr, ptr %0, align 8
  %vfn4 = getelementptr inbounds i8, ptr %vtable3, i64 24
  %5 = load ptr, ptr %vfn4, align 8
  tail call void %5(ptr noundef nonnull align 8 dereferenceable(8) %0, ptr noundef null)
  br label %if.end

if.end:                                           ; preds = %if.then, %entry
  ret void
}